target datalayout = "e-m:e-p270:32:32-p271:32:32-p272:64:64-i64:64-i128:128-f80:128-n8:16:32:64-S128"
target triple = "x86_64-pc-linux-gnu"

%struct.SDL_AtomicU32 = type { i32 }
%struct.SDL_Hint = type { ptr, i32, ptr }
%struct.SDL_HintWatch = type { ptr, ptr, ptr }

@SDL_hint_props = internal global %struct.SDL_AtomicU32 zeroinitializer, align 4
@.str = private unnamed_addr constant [26 x i8] c"Parameter '%s' is invalid\00", align 1
@.str.1 = private unnamed_addr constant [5 x i8] c"name\00", align 1
@.str.6 = private unnamed_addr constant [17 x i8] c"SDL_VIDEO_DRIVER\00", align 1
@.str.7 = private unnamed_addr constant [16 x i8] c"SDL_VIDEODRIVER\00", align 1
@.str.8 = private unnamed_addr constant [17 x i8] c"SDL_AUDIO_DRIVER\00", align 1
@.str.9 = private unnamed_addr constant [16 x i8] c"SDL_AUDIODRIVER\00", align 1

; Function Attrs: nounwind uwtable
define internal i32 @GetHintProperties(i1 noundef zeroext %0) #0 {
  %2 = alloca i8, align 1
  %3 = alloca i32, align 4
  %4 = zext i1 %0 to i8
  store i8 %4, ptr %2, align 1
  call void @llvm.lifetime.start.p0(i64 4, ptr %3) #3
  %5 = call i32 @SDL_GetAtomicU32_REAL(ptr noundef @SDL_hint_props)
  store i32 %5, ptr %3, align 4
  %6 = load i32, ptr %3, align 4
  %7 = icmp ne i32 %6, 0
  br i1 %7, label %19, label %8

8:                                                ; preds = %1
  %9 = load i8, ptr %2, align 1, !range !6, !noundef !7
  %10 = trunc i8 %9 to i1
  br i1 %10, label %11, label %19

11:                                               ; preds = %8
  %12 = call i32 @SDL_CreateProperties_REAL()
  store i32 %12, ptr %3, align 4
  %13 = load i32, ptr %3, align 4
  %14 = call zeroext i1 @SDL_CompareAndSwapAtomicU32_REAL(ptr noundef @SDL_hint_props, i32 noundef 0, i32 noundef %13)
  br i1 %14, label %18, label %15

15:                                               ; preds = %11
  %16 = load i32, ptr %3, align 4
  call void @SDL_DestroyProperties_REAL(i32 noundef %16)
  %17 = call i32 @SDL_GetAtomicU32_REAL(ptr noundef @SDL_hint_props)
  store i32 %17, ptr %3, align 4
  br label %18

18:                                               ; preds = %15, %11
  br label %19

19:                                               ; preds = %18, %8, %1
  %20 = load i32, ptr %3, align 4
  call void @llvm.lifetime.end.p0(i64 4, ptr %3) #3
  ret i32 %20
}

; Function Attrs: nounwind uwtable
define internal ptr @GetHintEnvironmentVariable(ptr noundef %0) #0 {
  %2 = alloca ptr, align 8
  %3 = alloca ptr, align 8
  store ptr %0, ptr %2, align 8
  call void @llvm.lifetime.start.p0(i64 8, ptr %3) #3
  %4 = load ptr, ptr %2, align 8
  %5 = call ptr @SDL_getenv_REAL(ptr noundef %4)
  store ptr %5, ptr %3, align 8
  %6 = load ptr, ptr %3, align 8
  %7 = icmp ne ptr %6, null
  br i1 %7, label %30, label %8

8:                                                ; preds = %1
  %9 = load ptr, ptr %2, align 8
  %10 = icmp ne ptr %9, null
  br i1 %10, label %11, label %30

11:                                               ; preds = %8
  %12 = load ptr, ptr %2, align 8
  %13 = load i8, ptr %12, align 1
  %14 = sext i8 %13 to i32
  %15 = icmp ne i32 %14, 0
  br i1 %15, label %16, label %30

16:                                               ; preds = %11
  %17 = load ptr, ptr %2, align 8
  %18 = call i32 @SDL_strcmp_REAL(ptr noundef %17, ptr noundef @.str.6)
  %19 = icmp eq i32 %18, 0
  br i1 %19, label %20, label %22

20:                                               ; preds = %16
  %21 = call ptr @SDL_getenv_REAL(ptr noundef @.str.7)
  store ptr %21, ptr %3, align 8
  br label %29

22:                                               ; preds = %16
  %23 = load ptr, ptr %2, align 8
  %24 = call i32 @SDL_strcmp_REAL(ptr noundef %23, ptr noundef @.str.8)
  %25 = icmp eq i32 %24, 0
  br i1 %25, label %26, label %28

26:                                               ; preds = %22
  %27 = call ptr @SDL_getenv_REAL(ptr noundef @.str.9)
  store ptr %27, ptr %3, align 8
  br label %28

28:                                               ; preds = %26, %22
  br label %29

29:                                               ; preds = %28, %20
  br label %30

30:                                               ; preds = %29, %11, %8, %1
  %31 = load ptr, ptr %3, align 8
  call void @llvm.lifetime.end.p0(i64 8, ptr %3) #3
  ret ptr %31
}

; Function Attrs: nounwind uwtable
define hidden zeroext i1 @SDL_ResetHint_REAL(ptr noundef %0) #0 {
  %2 = alloca i1, align 1
  %3 = alloca ptr, align 8
  %4 = alloca ptr, align 8
  %5 = alloca i32, align 4
  %6 = alloca i32, align 4
  %7 = alloca i8, align 1
  %8 = alloca ptr, align 8
  %9 = alloca ptr, align 8
  %10 = alloca ptr, align 8
  store ptr %0, ptr %3, align 8
  %11 = load ptr, ptr %3, align 8
  %12 = icmp ne ptr %11, null
  br i1 %12, label %13, label %17

13:                                               ; preds = %1
  %14 = load ptr, ptr %3, align 8
  %15 = load i8, ptr %14, align 1
  %16 = icmp ne i8 %15, 0
  br i1 %16, label %19, label %17

17:                                               ; preds = %13, %1
  %18 = call zeroext i1 (ptr, ...) @SDL_SetError_REAL(ptr noundef @.str, ptr noundef @.str.1)
  store i1 %18, ptr %2, align 1
  br label %98

19:                                               ; preds = %13
  call void @llvm.lifetime.start.p0(i64 8, ptr %4) #3
  %20 = load ptr, ptr %3, align 8
  %21 = call ptr @GetHintEnvironmentVariable(ptr noundef %20)
  store ptr %21, ptr %4, align 8
  call void @llvm.lifetime.start.p0(i64 4, ptr %5) #3
  %22 = call i32 @GetHintProperties(i1 noundef zeroext false)
  store i32 %22, ptr %5, align 4
  %23 = load i32, ptr %5, align 4
  %24 = icmp ne i32 %23, 0
  br i1 %24, label %26, label %25

25:                                               ; preds = %19
  store i1 false, ptr %2, align 1
  store i32 1, ptr %6, align 4
  br label %97

26:                                               ; preds = %19
  call void @llvm.lifetime.start.p0(i64 1, ptr %7) #3
  store i8 0, ptr %7, align 1
  %27 = load i32, ptr %5, align 4
  %28 = call zeroext i1 @SDL_LockProperties_REAL(i32 noundef %27)
  call void @llvm.lifetime.start.p0(i64 8, ptr %8) #3
  %29 = load i32, ptr %5, align 4
  %30 = load ptr, ptr %3, align 8
  %31 = call ptr @SDL_GetPointerProperty_REAL(i32 noundef %29, ptr noundef %30, ptr noundef null)
  store ptr %31, ptr %8, align 8
  %32 = load ptr, ptr %8, align 8
  %33 = icmp ne ptr %32, null
  br i1 %33, label %34, label %93

34:                                               ; preds = %26
  %35 = load ptr, ptr %4, align 8
  %36 = icmp ne ptr %35, null
  br i1 %36, label %42, label %37

37:                                               ; preds = %34
  %38 = load ptr, ptr %8, align 8
  %39 = getelementptr inbounds nuw %struct.SDL_Hint, ptr %38, i32 0, i32 0
  %40 = load ptr, ptr %39, align 8
  %41 = icmp ne ptr %40, null
  br i1 %41, label %60, label %42

42:                                               ; preds = %37, %34
  %43 = load ptr, ptr %4, align 8
  %44 = icmp ne ptr %43, null
  br i1 %44, label %45, label %50

45:                                               ; preds = %42
  %46 = load ptr, ptr %8, align 8
  %47 = getelementptr inbounds nuw %struct.SDL_Hint, ptr %46, i32 0, i32 0
  %48 = load ptr, ptr %47, align 8
  %49 = icmp ne ptr %48, null
  br i1 %49, label %50, label %60

50:                                               ; preds = %45, %42
  %51 = load ptr, ptr %4, align 8
  %52 = icmp ne ptr %51, null
  br i1 %52, label %53, label %85

53:                                               ; preds = %50
  %54 = load ptr, ptr %4, align 8
  %55 = load ptr, ptr %8, align 8
  %56 = getelementptr inbounds nuw %struct.SDL_Hint, ptr %55, i32 0, i32 0
  %57 = load ptr, ptr %56, align 8
  %58 = call i32 @SDL_strcmp_REAL(ptr noundef %54, ptr noundef %57)
  %59 = icmp ne i32 %58, 0
  br i1 %59, label %60, label %85

60:                                               ; preds = %53, %45, %37
  call void @llvm.lifetime.start.p0(i64 8, ptr %9) #3
  %61 = load ptr, ptr %8, align 8
  %62 = getelementptr inbounds nuw %struct.SDL_Hint, ptr %61, i32 0, i32 2
  %63 = load ptr, ptr %62, align 8
  store ptr %63, ptr %9, align 8
  br label %64

64:                                               ; preds = %68, %60
  %65 = load ptr, ptr %9, align 8
  %66 = icmp ne ptr %65, null
  br i1 %66, label %68, label %67

67:                                               ; preds = %64
  store i32 2, ptr %6, align 4
  call void @llvm.lifetime.end.p0(i64 8, ptr %9) #3
  br label %84

68:                                               ; preds = %64
  call void @llvm.lifetime.start.p0(i64 8, ptr %10) #3
  %69 = load ptr, ptr %9, align 8
  %70 = getelementptr inbounds nuw %struct.SDL_HintWatch, ptr %69, i32 0, i32 2
  %71 = load ptr, ptr %70, align 8
  store ptr %71, ptr %10, align 8
  %72 = load ptr, ptr %9, align 8
  %73 = getelementptr inbounds nuw %struct.SDL_HintWatch, ptr %72, i32 0, i32 0
  %74 = load ptr, ptr %73, align 8
  %75 = load ptr, ptr %9, align 8
  %76 = getelementptr inbounds nuw %struct.SDL_HintWatch, ptr %75, i32 0, i32 1
  %77 = load ptr, ptr %76, align 8
  %78 = load ptr, ptr %3, align 8
  %79 = load ptr, ptr %8, align 8
  %80 = getelementptr inbounds nuw %struct.SDL_Hint, ptr %79, i32 0, i32 0
  %81 = load ptr, ptr %80, align 8
  %82 = load ptr, ptr %4, align 8
  call void %74(ptr noundef %77, ptr noundef %78, ptr noundef %81, ptr noundef %82)
  %83 = load ptr, ptr %10, align 8
  store ptr %83, ptr %9, align 8
  call void @llvm.lifetime.end.p0(i64 8, ptr %10) #3
  br label %64, !llvm.loop !9

84:                                               ; preds = %67
  br label %85

85:                                               ; preds = %84, %53, %50
  %86 = load ptr, ptr %8, align 8
  %87 = getelementptr inbounds nuw %struct.SDL_Hint, ptr %86, i32 0, i32 0
  %88 = load ptr, ptr %87, align 8
  call void @SDL_free_REAL(ptr noundef %88)
  %89 = load ptr, ptr %8, align 8
  %90 = getelementptr inbounds nuw %struct.SDL_Hint, ptr %89, i32 0, i32 0
  store ptr null, ptr %90, align 8
  %91 = load ptr, ptr %8, align 8
  %92 = getelementptr inbounds nuw %struct.SDL_Hint, ptr %91, i32 0, i32 1
  store i32 0, ptr %92, align 8
  store i8 1, ptr %7, align 1
  br label %93

93:                                               ; preds = %85, %26
  %94 = load i32, ptr %5, align 4
  call void @SDL_UnlockProperties_REAL(i32 noundef %94)
  %95 = load i8, ptr %7, align 1, !range !6, !noundef !7
  %96 = trunc i8 %95 to i1
  store i1 %96, ptr %2, align 1
  store i32 1, ptr %6, align 4
  call void @llvm.lifetime.end.p0(i64 8, ptr %8) #3
  call void @llvm.lifetime.end.p0(i64 1, ptr %7) #3
  br label %97

97:                                               ; preds = %93, %25
  call void @llvm.lifetime.end.p0(i64 4, ptr %5) #3
  call void @llvm.lifetime.end.p0(i64 8, ptr %4) #3
  br label %98

98:                                               ; preds = %97, %17
  %99 = load i1, ptr %2, align 1
  ret i1 %99
}