; Function Attrs: nounwind uwtable
define hidden zeroext i1 @SDL_ResetHint_REAL(ptr noundef %0) local_unnamed_addr #1 {
  %.not = icmp eq ptr %0, null
  br i1 %.not, label %4, label %2

2:                                                ; preds = %1
  %3 = load i8, ptr %0, align 1
  %.not35 = icmp eq i8 %3, 0
  br i1 %.not35, label %4, label %6

4:                                                ; preds = %2, %1
  %5 = tail call zeroext i1 (ptr, ...) @SDL_SetError_REAL(ptr noundef nonnull @.str, ptr noundef nonnull @.str.1) #3
  br label %39

6:                                                ; preds = %2
  %7 = tail call ptr @SDL_getenv_REAL(ptr noundef nonnull %0) #3
  %8 = icmp eq ptr %7, null
  br i1 %8, label %9, label %GetHintEnvironmentVariable.exit

9:                                                ; preds = %6
  %10 = load i8, ptr %0, align 1
  %.not.i = icmp eq i8 %10, 0
  br i1 %.not.i, label %GetHintEnvironmentVariable.exit, label %11

11:                                               ; preds = %9
  %12 = tail call i32 @SDL_strcmp_REAL(ptr noundef nonnull %0, ptr noundef nonnull @.str.6) #3
  %13 = icmp eq i32 %12, 0
  br i1 %13, label %.sink.split.i, label %14

14:                                               ; preds = %11
  %15 = tail call i32 @SDL_strcmp_REAL(ptr noundef nonnull %0, ptr noundef nonnull @.str.8) #3
  %16 = icmp eq i32 %15, 0
  br i1 %16, label %.sink.split.i, label %GetHintEnvironmentVariable.exit

.sink.split.i:                                    ; preds = %14, %11
  %.str.7.sink.i = phi ptr [ @.str.7, %11 ], [ @.str.9, %14 ]
  %17 = tail call ptr @SDL_getenv_REAL(ptr noundef nonnull %.str.7.sink.i) #3
  br label %GetHintEnvironmentVariable.exit

GetHintEnvironmentVariable.exit:                  ; preds = %6, %9, %14, %.sink.split.i
  %.0.i = phi ptr [ null, %14 ], [ null, %9 ], [ %7, %6 ], [ %17, %.sink.split.i ]
  %18 = tail call i32 @SDL_GetAtomicU32_REAL(ptr noundef nonnull @SDL_hint_props) #3
  %.not36 = icmp eq i32 %18, 0
  br i1 %.not36, label %39, label %19

19:                                               ; preds = %GetHintEnvironmentVariable.exit
  %20 = tail call zeroext i1 @SDL_LockProperties_REAL(i32 noundef %18) #3
  %21 = tail call ptr @SDL_GetPointerProperty_REAL(i32 noundef %18, ptr noundef nonnull %0, ptr noundef null) #3
  %.not37 = icmp ne ptr %21, null
  br i1 %.not37, label %22, label %38

22:                                               ; preds = %19
  %.not38 = icmp eq ptr %.0.i, null
  %23 = load ptr, ptr %21, align 8
  %.not39 = icmp eq ptr %23, null
  br i1 %.not38, label %24, label %.critedge

24:                                               ; preds = %22
  br i1 %.not39, label %.critedge44, label %27

.critedge:                                        ; preds = %22
  br i1 %.not39, label %27, label %25

25:                                               ; preds = %.critedge
  %26 = tail call i32 @SDL_strcmp_REAL(ptr noundef nonnull %.0.i, ptr noundef nonnull %23) #3
  %.not41 = icmp eq i32 %26, 0
  br i1 %.not41, label %.critedge44, label %27

27:                                               ; preds = %25, %.critedge, %24
  %28 = getelementptr inbounds nuw i8, ptr %21, i64 16
  %29 = load ptr, ptr %28, align 8
  %.not4247 = icmp eq ptr %29, null
  br i1 %.not4247, label %.critedge44, label %.lr.ph

.lr.ph:                                           ; preds = %27, %.lr.ph
  %.02948 = phi ptr [ %31, %.lr.ph ], [ %29, %27 ]
  %30 = getelementptr inbounds nuw i8, ptr %.02948, i64 16
  %31 = load ptr, ptr %30, align 8
  %32 = load ptr, ptr %.02948, align 8
  %33 = getelementptr inbounds nuw i8, ptr %.02948, i64 8
  %34 = load ptr, ptr %33, align 8
  %35 = load ptr, ptr %21, align 8
  tail call void %32(ptr noundef %34, ptr noundef nonnull %0, ptr noundef %35, ptr noundef %.0.i) #3
  %.not42 = icmp eq ptr %31, null
  br i1 %.not42, label %.critedge44, label %.lr.ph, !llvm.loop !7

.critedge44:                                      ; preds = %.lr.ph, %27, %24, %25
  %36 = load ptr, ptr %21, align 8
  tail call void @SDL_free_REAL(ptr noundef %36) #3
  store ptr null, ptr %21, align 8
  %37 = getelementptr inbounds nuw i8, ptr %21, i64 8
  store i32 0, ptr %37, align 8
  br label %38

38:                                               ; preds = %.critedge44, %19
  tail call void @SDL_UnlockProperties_REAL(i32 noundef %18) #3
  br label %39

39:                                               ; preds = %38, %GetHintEnvironmentVariable.exit, %4
  %.0 = phi i1 [ %5, %4 ], [ %.not37, %38 ], [ false, %GetHintEnvironmentVariable.exit ]
  ret i1 %.0
}